target datalayout = "e-m:e-p270:32:32-p271:32:32-p272:64:64-i64:64-i128:128-f80:128-n8:16:32:64-S128"
target triple = "x86_64-pc-linux-gnu"

%struct.AVCodecContext = type { ptr, i32, i32, ptr, i32, i32, ptr, ptr, ptr, i64, i32, i32, ptr, i32, %struct.AVRational, %struct.AVRational, %struct.AVRational, i32, i32, i32, i32, i32, %struct.AVRational, i32, i32, i32, i32, i32, i32, i32, i32, i32, i32, i32, ptr, ptr, i32, float, float, float, float, float, float, float, float, float, i32, i32, i32, i32, i32, i32, i32, i32, i32, i32, i32, i32, ptr, ptr, ptr, i32, i32, i32, i32, i32, i32, i32, i32, i32, i32, %struct.AVChannelLayout, i32, i32, i32, i32, i32, i32, i32, i32, ptr, i32, i32, i32, float, float, i32, i32, i32, i32, i32, ptr, i64, i64, float, float, i32, i32, ptr, ptr, i32, i32, i32, i32, i32, ptr, ptr, ptr, ptr, i32, i32, [8 x i64], i32, i32, i32, i32, i32, i32, i32, ptr, ptr, i32, i32, i32, i32, i32, i32, i32, i32, i32, i32, ptr, ptr, i32, i32, ptr, ptr, ptr, ptr, i32, i32, i64, i32, i32, i64, ptr, i64, ptr, i32, ptr, i32 }
%struct.AVRational = type { i32, i32 }
%struct.AVChannelLayout = type { i32, i32, %union.anon.1, ptr }
%union.anon.1 = type { i64 }
%struct.PGSSubContext = type { ptr, %struct.PGSSubPresentation, %struct.PGSSubPalettes, %struct.PGSSubObjects, i32 }
%struct.PGSSubPresentation = type { i32, i32, i32, [2 x %struct.PGSSubObjectRef], i64 }
%struct.PGSSubObjectRef = type { i32, i32, i8, i32, i32, i32, i32, i32, i32 }
%struct.PGSSubPalettes = type { i32, [8 x %struct.PGSSubPalette] }
%struct.PGSSubPalette = type { i32, [256 x i32] }
%struct.PGSSubObjects = type { i32, [64 x %struct.PGSSubObject] }
%struct.PGSSubObject = type { i32, i32, i32, ptr, i32, i32, i32 }

; Function Attrs: nounwind uwtable
define internal void @flush_cache(ptr noundef %0) #1 {
  %2 = alloca ptr, align 8
  %3 = alloca ptr, align 8
  %4 = alloca i32, align 4
  store ptr %0, ptr %2, align 8, !tbaa !4
  call void @llvm.lifetime.start.p0(i64 8, ptr %3) #8
  %5 = load ptr, ptr %2, align 8, !tbaa !4
  %6 = getelementptr inbounds nuw %struct.AVCodecContext, ptr %5, i32 0, i32 6
  %7 = load ptr, ptr %6, align 8, !tbaa !50
  store ptr %7, ptr %3, align 8, !tbaa !51
  call void @llvm.lifetime.start.p0(i64 4, ptr %4) #8
  store i32 0, ptr %4, align 4, !tbaa !38
  br label %8

8:                                                ; preds = %37, %1
  %9 = load i32, ptr %4, align 4, !tbaa !38
  %10 = load ptr, ptr %3, align 8, !tbaa !51
  %11 = getelementptr inbounds nuw %struct.PGSSubContext, ptr %10, i32 0, i32 3
  %12 = getelementptr inbounds nuw %struct.PGSSubObjects, ptr %11, i32 0, i32 0
  %13 = load i32, ptr %12, align 8, !tbaa !66
  %14 = icmp slt i32 %9, %13
  br i1 %14, label %15, label %40

15:                                               ; preds = %8
  %16 = load ptr, ptr %3, align 8, !tbaa !51
  %17 = getelementptr inbounds nuw %struct.PGSSubContext, ptr %16, i32 0, i32 3
  %18 = getelementptr inbounds nuw %struct.PGSSubObjects, ptr %17, i32 0, i32 1
  %19 = load i32, ptr %4, align 4, !tbaa !38
  %20 = sext i32 %19 to i64
  %21 = getelementptr inbounds [64 x %struct.PGSSubObject], ptr %18, i64 0, i64 %20
  %22 = getelementptr inbounds nuw %struct.PGSSubObject, ptr %21, i32 0, i32 3
  call void @av_freep(ptr noundef %22)
  %23 = load ptr, ptr %3, align 8, !tbaa !51
  %24 = getelementptr inbounds nuw %struct.PGSSubContext, ptr %23, i32 0, i32 3
  %25 = getelementptr inbounds nuw %struct.PGSSubObjects, ptr %24, i32 0, i32 1
  %26 = load i32, ptr %4, align 4, !tbaa !38
  %27 = sext i32 %26 to i64
  %28 = getelementptr inbounds [64 x %struct.PGSSubObject], ptr %25, i64 0, i64 %27
  %29 = getelementptr inbounds nuw %struct.PGSSubObject, ptr %28, i32 0, i32 4
  store i32 0, ptr %29, align 8, !tbaa !119
  %30 = load ptr, ptr %3, align 8, !tbaa !51
  %31 = getelementptr inbounds nuw %struct.PGSSubContext, ptr %30, i32 0, i32 3
  %32 = getelementptr inbounds nuw %struct.PGSSubObjects, ptr %31, i32 0, i32 1
  %33 = load i32, ptr %4, align 4, !tbaa !38
  %34 = sext i32 %33 to i64
  %35 = getelementptr inbounds [64 x %struct.PGSSubObject], ptr %32, i64 0, i64 %34
  %36 = getelementptr inbounds nuw %struct.PGSSubObject, ptr %35, i32 0, i32 6
  store i32 0, ptr %36, align 8, !tbaa !69
  br label %37

37:                                               ; preds = %15
  %38 = load i32, ptr %4, align 4, !tbaa !38
  %39 = add nsw i32 %38, 1
  store i32 %39, ptr %4, align 4, !tbaa !38
  br label %8, !llvm.loop !120

40:                                               ; preds = %8
  %41 = load ptr, ptr %3, align 8, !tbaa !51
  %42 = getelementptr inbounds nuw %struct.PGSSubContext, ptr %41, i32 0, i32 3
  %43 = getelementptr inbounds nuw %struct.PGSSubObjects, ptr %42, i32 0, i32 0
  store i32 0, ptr %43, align 8, !tbaa !66
  %44 = load ptr, ptr %3, align 8, !tbaa !51
  %45 = getelementptr inbounds nuw %struct.PGSSubContext, ptr %44, i32 0, i32 2
  %46 = getelementptr inbounds nuw %struct.PGSSubPalettes, ptr %45, i32 0, i32 0
  store i32 0, ptr %46, align 8, !tbaa !55
  call void @llvm.lifetime.end.p0(i64 4, ptr %4) #8
  call void @llvm.lifetime.end.p0(i64 8, ptr %3) #8
  ret void
}