; Function Attrs: nounwind uwtable
define internal fastcc void @flush_cache(ptr %.32.val) unnamed_addr #1 {
  %1 = getelementptr inbounds nuw i8, ptr %.32.val, i64 8336
  %2 = load i32, ptr %1, align 8, !tbaa !49
  %3 = icmp sgt i32 %2, 0
  br i1 %3, label %.lr.ph, label %._crit_edge

.lr.ph:                                           ; preds = %0
  %4 = getelementptr inbounds nuw i8, ptr %.32.val, i64 8344
  br label %5

5:                                                ; preds = %.lr.ph, %5
  %indvars.iv = phi i64 [ 0, %.lr.ph ], [ %indvars.iv.next, %5 ]
  %6 = getelementptr inbounds nuw [64 x %struct.PGSSubObject], ptr %4, i64 0, i64 %indvars.iv
  %7 = getelementptr inbounds nuw i8, ptr %6, i64 16
  tail call void @av_freep(ptr noundef nonnull %7) #7
  %8 = getelementptr inbounds nuw i8, ptr %6, i64 24
  store i32 0, ptr %8, align 8, !tbaa !62
  %9 = getelementptr inbounds nuw i8, ptr %6, i64 32
  store i32 0, ptr %9, align 8, !tbaa !50
  %indvars.iv.next = add nuw nsw i64 %indvars.iv, 1
  %10 = load i32, ptr %1, align 8, !tbaa !49
  %11 = sext i32 %10 to i64
  %12 = icmp slt i64 %indvars.iv.next, %11
  br i1 %12, label %5, label %._crit_edge, !llvm.loop !63

._crit_edge:                                      ; preds = %5, %0
  store i32 0, ptr %1, align 8, !tbaa !49
  %13 = getelementptr inbounds nuw i8, ptr %.32.val, i64 104
  store i32 0, ptr %13, align 8, !tbaa !39
  ret void
}